target datalayout = "e-m:e-p270:32:32-p271:32:32-p272:64:64-i64:64-i128:128-f80:128-n8:16:32:64-S128"
target triple = "x86_64-pc-linux-gnu"

; Function Attrs: nounwind uwtable
define i32 @ossl_ec_set_ecdh_cofactor_mode(ptr noundef %0, i32 noundef %1) #0 {
  %3 = alloca i32, align 4
  %4 = alloca ptr, align 8
  %5 = alloca i32, align 4
  %6 = alloca ptr, align 8
  %7 = alloca ptr, align 8
  %8 = alloca i32, align 4
  store ptr %0, ptr %4, align 8, !tbaa !18
  store i32 %1, ptr %5, align 4, !tbaa !16
  call void @llvm.lifetime.start.p0(i64 8, ptr %6) #3
  %9 = load ptr, ptr %4, align 8, !tbaa !18
  %10 = call ptr @EC_KEY_get0_group(ptr noundef %9)
  store ptr %10, ptr %6, align 8, !tbaa !23
  call void @llvm.lifetime.start.p0(i64 8, ptr %7) #3
  %11 = load i32, ptr %5, align 4, !tbaa !16
  %12 = icmp slt i32 %11, 0
  br i1 %12, label %16, label %13

13:                                               ; preds = %2
  %14 = load i32, ptr %5, align 4, !tbaa !16
  %15 = icmp sgt i32 %14, 1
  br i1 %15, label %16, label %17

16:                                               ; preds = %13, %2
  store i32 0, ptr %3, align 4
  store i32 1, ptr %8, align 4
  br label %39

17:                                               ; preds = %13
  %18 = load ptr, ptr %6, align 8, !tbaa !23
  %19 = call ptr @EC_GROUP_get0_cofactor(ptr noundef %18)
  store ptr %19, ptr %7, align 8, !tbaa !42
  %20 = icmp eq ptr %19, null
  br i1 %20, label %21, label %22

21:                                               ; preds = %17
  store i32 0, ptr %3, align 4
  store i32 1, ptr %8, align 4
  br label %39

22:                                               ; preds = %17
  %23 = load ptr, ptr %7, align 8, !tbaa !42
  %24 = call i32 @BN_is_one(ptr noundef %23)
  %25 = icmp ne i32 %24, 0
  br i1 %25, label %26, label %27

26:                                               ; preds = %22
  store i32 1, ptr %3, align 4
  store i32 1, ptr %8, align 4
  br label %39

27:                                               ; preds = %22
  %28 = load i32, ptr %5, align 4, !tbaa !16
  %29 = icmp eq i32 %28, 1
  br i1 %29, label %30, label %32

30:                                               ; preds = %27
  %31 = load ptr, ptr %4, align 8, !tbaa !18
  call void @EC_KEY_set_flags(ptr noundef %31, i32 noundef 4096)
  br label %38

32:                                               ; preds = %27
  %33 = load i32, ptr %5, align 4, !tbaa !16
  %34 = icmp eq i32 %33, 0
  br i1 %34, label %35, label %37

35:                                               ; preds = %32
  %36 = load ptr, ptr %4, align 8, !tbaa !18
  call void @EC_KEY_clear_flags(ptr noundef %36, i32 noundef 4096)
  br label %37

37:                                               ; preds = %35, %32
  br label %38

38:                                               ; preds = %37, %30
  store i32 1, ptr %3, align 4
  store i32 1, ptr %8, align 4
  br label %39

39:                                               ; preds = %38, %26, %21, %16
  call void @llvm.lifetime.end.p0(i64 8, ptr %7) #3
  call void @llvm.lifetime.end.p0(i64 8, ptr %6) #3
  %40 = load i32, ptr %3, align 4
  ret i32 %40
}