; Function Attrs: nounwind uwtable
define range(i32 0, 2) i32 @ossl_ec_set_ecdh_cofactor_mode(ptr noundef %0, i32 noundef %1) local_unnamed_addr #0 {
  %3 = tail call ptr @EC_KEY_get0_group(ptr noundef %0) #4
  %or.cond = icmp ugt i32 %1, 1
  br i1 %or.cond, label %13, label %4

4:                                                ; preds = %2
  %5 = tail call ptr @EC_GROUP_get0_cofactor(ptr noundef %3) #4
  %6 = icmp eq ptr %5, null
  br i1 %6, label %13, label %7

7:                                                ; preds = %4
  %8 = tail call i32 @BN_is_one(ptr noundef nonnull %5) #4
  %.not = icmp eq i32 %8, 0
  br i1 %.not, label %9, label %13

9:                                                ; preds = %7
  %10 = icmp eq i32 %1, 1
  br i1 %10, label %11, label %12

11:                                               ; preds = %9
  tail call void @EC_KEY_set_flags(ptr noundef %0, i32 noundef 4096) #4
  br label %13

12:                                               ; preds = %9
  tail call void @EC_KEY_clear_flags(ptr noundef %0, i32 noundef 4096) #4
  br label %13

13:                                               ; preds = %11, %12, %7, %4, %2
  %.0 = phi i32 [ 0, %2 ], [ 0, %4 ], [ 1, %7 ], [ 1, %12 ], [ 1, %11 ]
  ret i32 %.0
}